Certificate:
    Data:
        Version: 3 (0x2)
        Serial Number: 2042845 (0x1f2bdd)
    Signature Algorithm: sha256WithRSAEncryption
        Issuer: C=US, ST=California, O=Hera Test, CN=cert-authority
        Validity
            Not Before: May 22 08:21:49 2019 GMT
            Not After : Aug  8 08:21:49 2027 GMT
        Subject: C=US, ST=California, O=Hera Test, CN=hera test
        Subject Public Key Info:
            Public Key Algorithm: rsaEncryption
                Public-Key: (2048 bit)
                Modulus:
                    00:e8:cf:25:0b:b1:8b:e8:00:06:ba:51:d1:7e:8b:
                    55:56:13:8b:94:98:0f:e9:a4:50:d3:68:1a:7a:1e:
                    57:28:7b:24:ee:26:a8:73:9d:23:07:67:e8:6a:95:
                    b5:eb:7f:e6:22:77:77:32:35:86:b9:2f:04:80:2a:
                    a3:f3:38:92:d8:df:5e:8c:54:5a:8f:f2:0e:4d:26:
                    64:91:4d:c7:c4:02:a8:3b:5a:b6:8d:06:3a:c4:5d:
                    72:45:79:54:82:08:87:20:21:2b:f1:0b:eb:48:98:
                    dd:d3:24:85:51:b3:4d:e5:a9:b8:2f:7b:81:24:e2:
                    df:06:cc:9c:0b:99:4a:f9:6b:3d:de:88:ba:2b:f7:
                    da:be:75:d9:cb:57:4e:fe:19:7f:d1:60:6d:e7:db:
                    f7:2c:16:4e:d7:e5:08:95:a6:f0:bb:bc:78:73:a3:
                    e8:6d:da:d4:e3:35:77:5a:55:ff:2f:69:7d:41:d6:
                    33:b1:88:0b:4c:6f:d2:a3:bb:b6:75:91:d6:6a:dd:
                    4c:4c:a4:97:0d:45:13:f5:71:75:80:4a:3a:83:11:
                    7a:51:13:ae:92:73:0a:5e:a5:62:9a:67:ae:d8:ed:
                    c2:50:09:88:3f:9e:51:da:b2:88:83:e3:c7:a6:c6:
                    ee:b8:32:72:e8:8e:4d:4b:b1:d3:14:39:15:aa:37:
                    42:8b
                Exponent: 65537 (0x10001)
        X509v3 extensions:
            X509v3 Basic Constraints:
                CA:FALSE
            Netscape Comment:
                OpenSSL Generated Certificate
            X509v3 Subject Key Identifier:
                33:84:7E:5A:6B:8B:CC:CD:49:B7:CF:C9:13:B8:66:14:40:3E:32:60
            X509v3 Authority Key Identifier:
                keyid:AD:FE:1E:6D:0C:CE:15:73:39:58:3E:B4:07:6D:3F:98:54:45:D3:4C

    Signature Algorithm: sha256WithRSAEncryption
         42:49:c5:92:ce:91:1d:1e:bb:32:60:4d:7c:35:55:b5:9b:2f:
         12:d7:a1:36:5f:14:72:09:01:41:86:f6:40:60:b6:db:31:3e:
         de:f1:26:4b:ba:91:e5:11:a1:ba:e2:aa:0b:3a:ff:2a:e1:3f:
         e6:9d:08:ed:db:3f:29:47:0c:c7:cb:c1:82:4d:7b:70:06:43:
         cb:1f:44:14:6f:ea:d3:37:0c:fe:77:0b:17:fb:31:eb:e5:01:
         52:64:64:2c:bd:6b:1e:44:d8:e2:d0:85:2b:36:93:47:cd:22:
         b3:74:c7:df:d3:5c:a7:6f:d9:77:08:48:35:98:4d:5c:88:b2:
         9d:e9:7e:4e:c1:63:24:ed:99:77:1c:eb:1a:6d:9a:35:06:6e:
         cd:4d:a9:8c:b5:72:5d:d2:82:f5:c1:26:4d:d8:c4:4c:9b:3c:
         ce:d3:db:8e:94:2b:0f:fc:0b:22:93:4d:36:d3:1a:6d:39:3b:
         05:1c:0f:46:9e:6a:ea:70:7e:64:28:93:71:a6:98:0b:4d:57:
         cb:e0:3a:96:5d:a4:15:71:4c:6d:0d:f4:d8:e1:34:ee:1c:c1:
         94:27:47:9a:b2:85:87:25:96:51:09:dd:12:42:86:04:42:cb:
         81:f0:fe:59:aa:5c:4d:be:52:db:07:6f:8a:ca:ac:65:9a:e3:
         80:fc:a3:99
-----BEGIN CERTIFICATE-----
MIIDkTCCAnmgAwIBAgIDHyvdMA0GCSqGSIb3DQEBCwUAME8xCzAJBgNVBAYTAlVT
MRMwEQYDVQQIDApDYWxpZm9ybmlhMRIwEAYDVQQKDAlIZXJhIFRlc3QxFzAVBgNV
BAMMDmNlcnQtYXV0aG9yaXR5MB4XDTE5MDUyMjA4MjE0OVoXDTI3MDgwODA4MjE0
OVowSjELMAkGA1UEBhMCVVMxEzARBgNVBAgMCkNhbGlmb3JuaWExEjAQBgNVBAoM
CUhlcmEgVGVzdDESMBAGA1UEAwwJaGVyYSB0ZXN0MIIBIjANBgkqhkiG9w0BAQEF
AAOCAQ8AMIIBCgKCAQEA6M8lC7GL6AAGulHRfotVVhOLlJgP6aRQ02gaeh5XKHsk
7iaoc50jB2foapW163/mInd3MjWGuS8EgCqj8ziS2N9ejFRaj/IOTSZkkU3HxAKo
O1q2jQY6xF1yRXlUggiHICEr8QvrSJjd0ySFUbNN5am4L3uBJOLfBsycC5lK+Ws9
3oi6K/favnXZy1dO/hl/0WBt59v3LBZO1+UIlabwu7x4c6PobdrU4zV3WlX/L2l9
QdYzsYgLTG/So7u2dZHWat1MTKSXDUUT9XF1gEo6gxF6UROuknMKXqVimmeu2O3C
UAmIP55R2rKIg+PHpsbuuDJy6I5NS7HTFDkVqjdCiwIDAQABo3sweTAJBgNVHRME
AjAAMCwGCWCGSAGG+EIBDQQfFh1PcGVuU1NMIEdlbmVyYXRlZCBDZXJ0aWZpY2F0
ZTAdBgNVHQ4EFgQUM4R+WmuLzM1Jt8/JE7hmFEA+MmAwHwYDVR0jBBgwFoAUrf4e
bQzOFXM5WD60B20/mFRF00wwDQYJKoZIhvcNAQELBQADggEBAEJJxZLOkR0euzJg
TXw1VbWbLxLXoTZfFHIJAUGG9kBgttsxPt7xJku6keURobriqgs6/yrhP+adCO3b
PylHDMfLwYJNe3AGQ8sfRBRv6tM3DP53Cxf7MevlAVJkZCy9ax5E2OLQhSs2k0fN
IrN0x9/TXKdv2XcISDWYTVyIsp3pfk7BYyTtmXcc6xptmjUGbs1NqYy1cl3SgvXB
Jk3YxEybPM7T246UKw/8CyKTTTbTGm05OwUcD0aeaupwfmQok3GmmAtNV8vgOpZd
pBVxTG0N9NjhNO4cwZQnR5qyhYclllEJ3RJChgRCy4Hw/lmqXE2+UtsHb4rKrGWa
44D8o5k=
-----END CERTIFICATE-----
Certificate:
    Data:
        Version: 3 (0x2)
        Serial Number: 2042844 (0x1f2bdc)
    Signature Algorithm: sha256WithRSAEncryption
        Issuer: C=US, ST=California, O=Hera Test, CN=cert-authority
        Validity
            Not Before: May 22 08:21:49 2019 GMT
            Not After : May  4 08:21:49 2030 GMT
        Subject: C=US, ST=California, O=Hera Test, CN=cert-authority
        Subject Public Key Info:
            Public Key Algorithm: rsaEncryption
                Public-Key: (2048 bit)
                Modulus:
                    00:f0:e8:10:c7:16:86:ea:54:b9:c3:70:ed:04:59:
                    20:7e:a3:ad:fd:1c:17:b3:70:95:94:c4:2c:08:4c:
                    9a:9b:c1:f0:72:85:73:21:20:ad:62:1f:05:5f:13:
                    c9:d1:ee:b9:09:95:da:6a:f3:d9:c8:19:5a:50:9e:
                    00:6f:b3:db:fb:10:7d:7c:45:26:64:48:1d:1f:09:
                    79:31:91:a4:32:36:8c:a5:47:c9:0c:46:08:16:f9:
                    05:f5:31:d8:4f:7f:5b:3a:9e:14:59:b9:59:10:88:
                    fa:ef:15:c7:15:db:7c:7b:cd:a1:18:36:ee:dd:00:
                    74:c7:26:47:34:f5:3e:6c:d2:4f:fc:9a:81:3e:15:
                    67:5c:03:bd:50:56:37:f1:75:c3:cf:24:ca:61:0c:
                    03:dd:27:3b:8e:a7:44:f6:ff:2e:f3:d4:2e:84:28:
                    37:03:c7:b3:ed:f9:2e:a2:f2:ed:46:61:a6:ef:38:
                    0c:cc:95:fc:88:f5:a0:15:46:c1:2c:1f:ae:50:2f:
                    e3:44:ba:6e:f6:35:6a:14:5d:c7:ab:9d:af:2c:ae:
                    69:39:26:37:30:0a:05:98:26:84:1a:1f:ae:0e:82:
                    38:82:f8:58:e2:4a:1c:11:5e:00:27:10:4f:89:ba:
                    0a:e1:11:8b:34:1a:78:0b:7d:d1:7e:bf:16:04:14:
                    22:d1
                Exponent: 65537 (0x10001)
        X509v3 extensions:
            X509v3 Basic Constraints:
                CA:FALSE
            Netscape Comment:
                OpenSSL Generated Certificate
            X509v3 Subject Key Identifier:
                AD:FE:1E:6D:0C:CE:15:73:39:58:3E:B4:07:6D:3F:98:54:45:D3:4C
            X509v3 Authority Key Identifier:
                keyid:AD:FE:1E:6D:0C:CE:15:73:39:58:3E:B4:07:6D:3F:98:54:45:D3:4C

    Signature Algorithm: sha256WithRSAEncryption
         0c:9a:89:69:d9:ca:8a:60:db:9f:c6:34:f7:1c:1c:de:83:15:
         81:70:52:ae:ce:69:18:ab:ba:c4:f5:58:35:f2:b2:ff:4e:f7:
         f2:15:1c:bd:71:6f:50:7e:59:59:2a:a3:b4:6b:c6:e8:0f:bf:
         84:b5:36:c7:50:60:bc:a3:81:8a:65:dd:76:e9:c9:e7:45:6d:
         6c:14:1a:60:b3:46:ee:45:8f:46:38:7d:9e:1c:00:39:9c:11:
         4e:41:bd:98:e0:5f:d0:fe:8c:8a:08:45:72:e1:de:f4:84:a0:
         74:43:ca:bf:9f:13:43:cc:78:8f:3d:60:f5:79:42:cf:96:05:
         3c:f3:05:dc:96:61:5a:85:f1:c7:e0:56:71:48:ad:67:4c:e3:
         5a:73:1a:32:b0:f1:a1:08:30:e0:a3:e3:f0:f4:c7:d9:02:ed:
         5c:0b:ac:a4:9a:e2:0d:f2:63:a4:64:0b:07:6c:44:0a:22:88:
         fe:3c:6d:80:e9:ba:06:08:bc:4c:cc:7c:f0:90:a3:f0:e9:fa:
         1a:08:76:62:7d:de:66:68:6b:db:3e:c1:2f:ee:d3:ce:03:f3:
         0b:20:0a:44:af:86:af:94:46:07:50:00:2c:77:bc:e2:4b:bc:
         75:55:ee:7a:22:7c:c0:9e:1c:0a:57:16:38:c6:01:aa:2c:53:
         22:31:4b:05
-----BEGIN CERTIFICATE-----
MIIDljCCAn6gAwIBAgIDHyvcMA0GCSqGSIb3DQEBCwUAME8xCzAJBgNVBAYTAlVT
MRMwEQYDVQQIDApDYWxpZm9ybmlhMRIwEAYDVQQKDAlIZXJhIFRlc3QxFzAVBgNV
BAMMDmNlcnQtYXV0aG9yaXR5MB4XDTE5MDUyMjA4MjE0OVoXDTMwMDUwNDA4MjE0
OVowTzELMAkGA1UEBhMCVVMxEzARBgNVBAgMCkNhbGlmb3JuaWExEjAQBgNVBAoM
CUhlcmEgVGVzdDEXMBUGA1UEAwwOY2VydC1hdXRob3JpdHkwggEiMA0GCSqGSIb3
DQEBAQUAA4IBDwAwggEKAoIBAQDw6BDHFobqVLnDcO0EWSB+o639HBezcJWUxCwI
TJqbwfByhXMhIK1iHwVfE8nR7rkJldpq89nIGVpQngBvs9v7EH18RSZkSB0fCXkx
kaQyNoylR8kMRggW+QX1MdhPf1s6nhRZuVkQiPrvFccV23x7zaEYNu7dAHTHJkc0
9T5s0k/8moE+FWdcA71QVjfxdcPPJMphDAPdJzuOp0T2/y7z1C6EKDcDx7Pt+S6i
8u1GYabvOAzMlfyI9aAVRsEsH65QL+NEum72NWoUXcerna8srmk5JjcwCgWYJoQa
H64OgjiC+FjiShwRXgAnEE+JugrhEYs0GngLfdF+vxYEFCLRAgMBAAGjezB5MAkG
A1UdEwQCMAAwLAYJYIZIAYb4QgENBB8WHU9wZW5TU0wgR2VuZXJhdGVkIENlcnRp
ZmljYXRlMB0GA1UdDgQWBBSt/h5tDM4VczlYPrQHbT+YVEXTTDAfBgNVHSMEGDAW
gBSt/h5tDM4VczlYPrQHbT+YVEXTTDANBgkqhkiG9w0BAQsFAAOCAQEADJqJadnK
imDbn8Y09xwc3oMVgXBSrs5pGKu6xPVYNfKy/0738hUcvXFvUH5ZWSqjtGvG6A+/
hLU2x1BgvKOBimXddunJ50VtbBQaYLNG7kWPRjh9nhwAOZwRTkG9mOBf0P6MighF
cuHe9ISgdEPKv58TQ8x4jz1g9XlCz5YFPPMF3JZhWoXxx+BWcUitZ0zjWnMaMrDx
oQgw4KPj8PTH2QLtXAuspJriDfJjpGQLB2xECiKI/jxtgOm6Bgi8TMx88JCj8On6
Ggh2Yn3eZmhr2z7BL+7TzgPzCyAKRK+Gr5RGB1AALHe84ku8dVXueiJ8wJ4cClcW
OMYBqixTIjFLBQ==
-----END CERTIFICATE-----